
rv32ui-uo-srai:     file format elf32-littleriscv


Disassembly of section .text:

00000000 <on_pass-0x4>:
   0:	00c0006f          	j	c <_start>

00000004 <on_pass>:
   4:	0000006f          	j	4 <on_pass>

00000008 <on_fail>:
   8:	0000006f          	j	8 <on_fail>

0000000c <_start>:
   c:	00000093          	li	ra,0
  10:	4000df13          	srai	t5,ra,0x0
  14:	00000e93          	li	t4,0
  18:	00200193          	li	gp,2
  1c:	2bdf1463          	bne	t5,t4,2c4 <fail>

00000020 <test_3>:
  20:	800000b7          	lui	ra,0x80000
  24:	4010df13          	srai	t5,ra,0x1
  28:	c0000eb7          	lui	t4,0xc0000
  2c:	00300193          	li	gp,3
  30:	29df1a63          	bne	t5,t4,2c4 <fail>

00000034 <test_4>:
  34:	800000b7          	lui	ra,0x80000
  38:	4070df13          	srai	t5,ra,0x7
  3c:	ff000eb7          	lui	t4,0xff000
  40:	00400193          	li	gp,4
  44:	29df1063          	bne	t5,t4,2c4 <fail>

00000048 <test_5>:
  48:	800000b7          	lui	ra,0x80000
  4c:	40e0df13          	srai	t5,ra,0xe
  50:	fffe0eb7          	lui	t4,0xfffe0
  54:	00500193          	li	gp,5
  58:	27df1663          	bne	t5,t4,2c4 <fail>

0000005c <test_6>:
  5c:	800000b7          	lui	ra,0x80000
  60:	00108093          	addi	ra,ra,1 # 80000001 <_end+0x7ffff001>
  64:	41f0df13          	srai	t5,ra,0x1f
  68:	fff00e93          	li	t4,-1
  6c:	00600193          	li	gp,6
  70:	25df1a63          	bne	t5,t4,2c4 <fail>

00000074 <test_7>:
  74:	800000b7          	lui	ra,0x80000
  78:	fff08093          	addi	ra,ra,-1 # 7fffffff <_end+0x7fffefff>
  7c:	4000df13          	srai	t5,ra,0x0
  80:	80000eb7          	lui	t4,0x80000
  84:	fffe8e93          	addi	t4,t4,-1 # 7fffffff <_end+0x7fffefff>
  88:	00700193          	li	gp,7
  8c:	23df1c63          	bne	t5,t4,2c4 <fail>

00000090 <test_8>:
  90:	800000b7          	lui	ra,0x80000
  94:	fff08093          	addi	ra,ra,-1 # 7fffffff <_end+0x7fffefff>
  98:	4010df13          	srai	t5,ra,0x1
  9c:	40000eb7          	lui	t4,0x40000
  a0:	fffe8e93          	addi	t4,t4,-1 # 3fffffff <_end+0x3fffefff>
  a4:	00800193          	li	gp,8
  a8:	21df1e63          	bne	t5,t4,2c4 <fail>

000000ac <test_9>:
  ac:	800000b7          	lui	ra,0x80000
  b0:	fff08093          	addi	ra,ra,-1 # 7fffffff <_end+0x7fffefff>
  b4:	4070df13          	srai	t5,ra,0x7
  b8:	01000eb7          	lui	t4,0x1000
  bc:	fffe8e93          	addi	t4,t4,-1 # ffffff <_end+0xffefff>
  c0:	00900193          	li	gp,9
  c4:	21df1063          	bne	t5,t4,2c4 <fail>

000000c8 <test_10>:
  c8:	800000b7          	lui	ra,0x80000
  cc:	fff08093          	addi	ra,ra,-1 # 7fffffff <_end+0x7fffefff>
  d0:	40e0df13          	srai	t5,ra,0xe
  d4:	00020eb7          	lui	t4,0x20
  d8:	fffe8e93          	addi	t4,t4,-1 # 1ffff <_end+0x1efff>
  dc:	00a00193          	li	gp,10
  e0:	1fdf1263          	bne	t5,t4,2c4 <fail>

000000e4 <test_11>:
  e4:	800000b7          	lui	ra,0x80000
  e8:	fff08093          	addi	ra,ra,-1 # 7fffffff <_end+0x7fffefff>
  ec:	41f0df13          	srai	t5,ra,0x1f
  f0:	00000e93          	li	t4,0
  f4:	00b00193          	li	gp,11
  f8:	1ddf1663          	bne	t5,t4,2c4 <fail>

000000fc <test_12>:
  fc:	818180b7          	lui	ra,0x81818
 100:	18108093          	addi	ra,ra,385 # 81818181 <_end+0x81817181>
 104:	4000df13          	srai	t5,ra,0x0
 108:	81818eb7          	lui	t4,0x81818
 10c:	181e8e93          	addi	t4,t4,385 # 81818181 <_end+0x81817181>
 110:	00c00193          	li	gp,12
 114:	1bdf1863          	bne	t5,t4,2c4 <fail>

00000118 <test_13>:
 118:	818180b7          	lui	ra,0x81818
 11c:	18108093          	addi	ra,ra,385 # 81818181 <_end+0x81817181>
 120:	4010df13          	srai	t5,ra,0x1
 124:	c0c0ceb7          	lui	t4,0xc0c0c
 128:	0c0e8e93          	addi	t4,t4,192 # c0c0c0c0 <_end+0xc0c0b0c0>
 12c:	00d00193          	li	gp,13
 130:	19df1a63          	bne	t5,t4,2c4 <fail>

00000134 <test_14>:
 134:	818180b7          	lui	ra,0x81818
 138:	18108093          	addi	ra,ra,385 # 81818181 <_end+0x81817181>
 13c:	4070df13          	srai	t5,ra,0x7
 140:	ff030eb7          	lui	t4,0xff030
 144:	303e8e93          	addi	t4,t4,771 # ff030303 <_end+0xff02f303>
 148:	00e00193          	li	gp,14
 14c:	17df1c63          	bne	t5,t4,2c4 <fail>

00000150 <test_15>:
 150:	818180b7          	lui	ra,0x81818
 154:	18108093          	addi	ra,ra,385 # 81818181 <_end+0x81817181>
 158:	40e0df13          	srai	t5,ra,0xe
 15c:	fffe0eb7          	lui	t4,0xfffe0
 160:	606e8e93          	addi	t4,t4,1542 # fffe0606 <_end+0xfffdf606>
 164:	00f00193          	li	gp,15
 168:	15df1e63          	bne	t5,t4,2c4 <fail>

0000016c <test_16>:
 16c:	818180b7          	lui	ra,0x81818
 170:	18108093          	addi	ra,ra,385 # 81818181 <_end+0x81817181>
 174:	41f0df13          	srai	t5,ra,0x1f
 178:	fff00e93          	li	t4,-1
 17c:	01000193          	li	gp,16
 180:	15df1263          	bne	t5,t4,2c4 <fail>

00000184 <test_17>:
 184:	800000b7          	lui	ra,0x80000
 188:	4070d093          	srai	ra,ra,0x7
 18c:	ff000eb7          	lui	t4,0xff000
 190:	01100193          	li	gp,17
 194:	13d09863          	bne	ra,t4,2c4 <fail>

00000198 <test_18>:
 198:	00000213          	li	tp,0
 19c:	800000b7          	lui	ra,0x80000
 1a0:	4070df13          	srai	t5,ra,0x7
 1a4:	000f0313          	mv	t1,t5
 1a8:	00120213          	addi	tp,tp,1 # 1 <on_pass-0x3>
 1ac:	00200293          	li	t0,2
 1b0:	fe5216e3          	bne	tp,t0,19c <test_18+0x4>
 1b4:	ff000eb7          	lui	t4,0xff000
 1b8:	01200193          	li	gp,18
 1bc:	11d31463          	bne	t1,t4,2c4 <fail>

000001c0 <test_19>:
 1c0:	00000213          	li	tp,0
 1c4:	800000b7          	lui	ra,0x80000
 1c8:	40e0df13          	srai	t5,ra,0xe
 1cc:	00000013          	nop
 1d0:	000f0313          	mv	t1,t5
 1d4:	00120213          	addi	tp,tp,1 # 1 <on_pass-0x3>
 1d8:	00200293          	li	t0,2
 1dc:	fe5214e3          	bne	tp,t0,1c4 <test_19+0x4>
 1e0:	fffe0eb7          	lui	t4,0xfffe0
 1e4:	01300193          	li	gp,19
 1e8:	0dd31e63          	bne	t1,t4,2c4 <fail>

000001ec <test_20>:
 1ec:	00000213          	li	tp,0
 1f0:	800000b7          	lui	ra,0x80000
 1f4:	00108093          	addi	ra,ra,1 # 80000001 <_end+0x7ffff001>
 1f8:	41f0df13          	srai	t5,ra,0x1f
 1fc:	00000013          	nop
 200:	00000013          	nop
 204:	000f0313          	mv	t1,t5
 208:	00120213          	addi	tp,tp,1 # 1 <on_pass-0x3>
 20c:	00200293          	li	t0,2
 210:	fe5210e3          	bne	tp,t0,1f0 <test_20+0x4>
 214:	fff00e93          	li	t4,-1
 218:	01400193          	li	gp,20
 21c:	0bd31463          	bne	t1,t4,2c4 <fail>

00000220 <test_21>:
 220:	00000213          	li	tp,0
 224:	800000b7          	lui	ra,0x80000
 228:	4070df13          	srai	t5,ra,0x7
 22c:	00120213          	addi	tp,tp,1 # 1 <on_pass-0x3>
 230:	00200293          	li	t0,2
 234:	fe5218e3          	bne	tp,t0,224 <test_21+0x4>
 238:	ff000eb7          	lui	t4,0xff000
 23c:	01500193          	li	gp,21
 240:	09df1263          	bne	t5,t4,2c4 <fail>

00000244 <test_22>:
 244:	00000213          	li	tp,0
 248:	800000b7          	lui	ra,0x80000
 24c:	00000013          	nop
 250:	40e0df13          	srai	t5,ra,0xe
 254:	00120213          	addi	tp,tp,1 # 1 <on_pass-0x3>
 258:	00200293          	li	t0,2
 25c:	fe5216e3          	bne	tp,t0,248 <test_22+0x4>
 260:	fffe0eb7          	lui	t4,0xfffe0
 264:	01600193          	li	gp,22
 268:	05df1e63          	bne	t5,t4,2c4 <fail>

0000026c <test_23>:
 26c:	00000213          	li	tp,0
 270:	800000b7          	lui	ra,0x80000
 274:	00108093          	addi	ra,ra,1 # 80000001 <_end+0x7ffff001>
 278:	00000013          	nop
 27c:	00000013          	nop
 280:	41f0df13          	srai	t5,ra,0x1f
 284:	00120213          	addi	tp,tp,1 # 1 <on_pass-0x3>
 288:	00200293          	li	t0,2
 28c:	fe5212e3          	bne	tp,t0,270 <test_23+0x4>
 290:	fff00e93          	li	t4,-1
 294:	01700193          	li	gp,23
 298:	03df1663          	bne	t5,t4,2c4 <fail>

0000029c <test_24>:
 29c:	40405093          	srai	ra,zero,0x4
 2a0:	00000e93          	li	t4,0
 2a4:	01800193          	li	gp,24
 2a8:	01d09e63          	bne	ra,t4,2c4 <fail>

000002ac <test_25>:
 2ac:	02100093          	li	ra,33
 2b0:	40a0d013          	srai	zero,ra,0xa
 2b4:	00000e93          	li	t4,0
 2b8:	01900193          	li	gp,25
 2bc:	01d01463          	bne	zero,t4,2c4 <fail>
 2c0:	00301863          	bne	zero,gp,2d0 <pass>

000002c4 <fail>:
 2c4:	00000093          	li	ra,0
 2c8:	00100073          	ebreak
 2cc:	d3dff06f          	j	8 <on_fail>

000002d0 <pass>:
 2d0:	00100093          	li	ra,1
 2d4:	00000073          	ecall
 2d8:	d2dff06f          	j	4 <on_pass>
 2dc:	0000006f          	j	2dc <pass+0xc>
