
rv64ui-uo-auipc:     file format elf64-littleriscv


Disassembly of section .text:

0000000000000000 <on_pass-0x4>:
   0:	00c0006f          	j	c <_start>

0000000000000004 <on_pass>:
   4:	0000006f          	j	4 <on_pass>

0000000000000008 <on_fail>:
   8:	0000006f          	j	8 <on_fail>

000000000000000c <_start>:
   c:	00000013          	nop
  10:	00002517          	auipc	a0,0x2
  14:	71c50513          	addi	a0,a0,1820 # 272c <_end+0x172c>
  18:	004005ef          	jal	a1,1c <_start+0x10>
  1c:	40b50533          	sub	a0,a0,a1
  20:	00002eb7          	lui	t4,0x2
  24:	710e8e9b          	addiw	t4,t4,1808
  28:	00200193          	li	gp,2
  2c:	03d51463          	bne	a0,t4,54 <fail>

0000000000000030 <test_3>:
  30:	ffffe517          	auipc	a0,0xffffe
  34:	8fc50513          	addi	a0,a0,-1796 # ffffffffffffd92c <_end+0xffffffffffffc92c>
  38:	004005ef          	jal	a1,3c <test_3+0xc>
  3c:	40b50533          	sub	a0,a0,a1
  40:	ffffeeb7          	lui	t4,0xffffe
  44:	8f0e8e9b          	addiw	t4,t4,-1808
  48:	00300193          	li	gp,3
  4c:	01d51463          	bne	a0,t4,54 <fail>
  50:	00301863          	bne	zero,gp,60 <pass>

0000000000000054 <fail>:
  54:	00000093          	li	ra,0
  58:	00100073          	ebreak
  5c:	fadff06f          	j	8 <on_fail>

0000000000000060 <pass>:
  60:	00100093          	li	ra,1
  64:	00000073          	ecall
  68:	f9dff06f          	j	4 <on_pass>
  6c:	0000006f          	j	6c <pass+0xc>
  70:	0000                	unimp
  72:	0000                	unimp
