
rv64ui-uo-fence_i:     file format elf64-littleriscv


Disassembly of section .text:

0000000000000000 <on_pass-0x4>:
   0:	00c0006f          	j	c <_start>

0000000000000004 <on_pass>:
   4:	0000006f          	j	4 <on_pass>

0000000000000008 <on_fail>:
   8:	0000006f          	j	8 <on_fail>

000000000000000c <_start>:
   c:	06f00693          	li	a3,111
  10:	00001517          	auipc	a0,0x1
  14:	ff051503          	lh	a0,-16(a0) # 1000 <insn>
  18:	00001597          	auipc	a1,0x1
  1c:	fea59583          	lh	a1,-22(a1) # 1002 <insn+0x2>
  20:	00000013          	nop
  24:	00000013          	nop
  28:	00000013          	nop
  2c:	00000013          	nop
  30:	00000013          	nop
  34:	00000013          	nop
  38:	00000013          	nop
  3c:	00000013          	nop
  40:	00000297          	auipc	t0,0x0
  44:	00a29a23          	sh	a0,20(t0) # 54 <_start+0x48>
  48:	00000297          	auipc	t0,0x0
  4c:	00b29723          	sh	a1,14(t0) # 56 <_start+0x4a>
  50:	0000100f          	fence.i
  54:	0de68693          	addi	a3,a3,222

0000000000000058 <test_2>:
  58:	00000013          	nop
  5c:	1bc00e93          	li	t4,444
  60:	00200193          	li	gp,2
  64:	07d69a63          	bne	a3,t4,d8 <fail>
  68:	06400713          	li	a4,100
  6c:	fff70713          	addi	a4,a4,-1
  70:	fe071ee3          	bnez	a4,6c <test_2+0x14>
  74:	00000297          	auipc	t0,0x0
  78:	04a29623          	sh	a0,76(t0) # c0 <test_2+0x68>
  7c:	00000297          	auipc	t0,0x0
  80:	04b29323          	sh	a1,70(t0) # c2 <test_2+0x6a>
  84:	0000100f          	fence.i
  88:	00000013          	nop
  8c:	00000013          	nop
  90:	00000013          	nop
  94:	00000013          	nop
  98:	00000013          	nop
  9c:	00000013          	nop
  a0:	00000013          	nop
  a4:	00000013          	nop
  a8:	00000013          	nop
  ac:	00000013          	nop
  b0:	00000013          	nop
  b4:	00000013          	nop
  b8:	00000013          	nop
  bc:	00000013          	nop
  c0:	22b68693          	addi	a3,a3,555

00000000000000c4 <test_3>:
  c4:	00000013          	nop
  c8:	30900e93          	li	t4,777
  cc:	00300193          	li	gp,3
  d0:	01d69463          	bne	a3,t4,d8 <fail>
  d4:	00301863          	bne	zero,gp,e4 <pass>

00000000000000d8 <fail>:
  d8:	00000093          	li	ra,0
  dc:	00100073          	ebreak
  e0:	f29ff06f          	j	8 <on_fail>

00000000000000e4 <pass>:
  e4:	00100093          	li	ra,1
  e8:	00000073          	ecall
  ec:	f19ff06f          	j	4 <on_pass>
  f0:	0000006f          	j	f0 <pass+0xc>
  f4:	0000                	unimp
  f6:	0000                	unimp
  f8:	0000                	unimp
  fa:	0000                	unimp
  fc:	0000                	unimp
  fe:	0000                	unimp
 100:	0000                	unimp
 102:	0000                	unimp
 104:	0000                	unimp
 106:	0000                	unimp
 108:	0000                	unimp
 10a:	0000                	unimp
 10c:	0000                	unimp
 10e:	0000                	unimp
 110:	0000                	unimp
 112:	0000                	unimp
 114:	0000                	unimp
 116:	0000                	unimp
 118:	0000                	unimp
 11a:	0000                	unimp
 11c:	0000                	unimp
 11e:	0000                	unimp
