
rv64ui-uo-lui:     file format elf64-littleriscv


Disassembly of section .text:

0000000000000000 <on_pass-0x4>:
   0:	00c0006f          	j	c <_start>

0000000000000004 <on_pass>:
   4:	0000006f          	j	4 <on_pass>

0000000000000008 <on_fail>:
   8:	0000006f          	j	8 <on_fail>

000000000000000c <_start>:
   c:	000000b7          	lui	ra,0x0
  10:	00000e93          	li	t4,0
  14:	00200193          	li	gp,2
  18:	05d09a63          	bne	ra,t4,6c <fail>

000000000000001c <test_3>:
  1c:	fffff0b7          	lui	ra,0xfffff
  20:	4010d093          	srai	ra,ra,0x1
  24:	80000e93          	li	t4,-2048
  28:	00300193          	li	gp,3
  2c:	05d09063          	bne	ra,t4,6c <fail>

0000000000000030 <test_4>:
  30:	7ffff0b7          	lui	ra,0x7ffff
  34:	4140d093          	srai	ra,ra,0x14
  38:	7ff00e93          	li	t4,2047
  3c:	00400193          	li	gp,4
  40:	03d09663          	bne	ra,t4,6c <fail>

0000000000000044 <test_5>:
  44:	800000b7          	lui	ra,0x80000
  48:	4140d093          	srai	ra,ra,0x14
  4c:	80000e93          	li	t4,-2048
  50:	00500193          	li	gp,5
  54:	01d09c63          	bne	ra,t4,6c <fail>

0000000000000058 <test_6>:
  58:	80000037          	lui	zero,0x80000
  5c:	00000e93          	li	t4,0
  60:	00600193          	li	gp,6
  64:	01d01463          	bne	zero,t4,6c <fail>
  68:	00301863          	bne	zero,gp,78 <pass>

000000000000006c <fail>:
  6c:	00000093          	li	ra,0
  70:	00100073          	ebreak
  74:	f95ff06f          	j	8 <on_fail>

0000000000000078 <pass>:
  78:	00100093          	li	ra,1
  7c:	00000073          	ecall
  80:	f85ff06f          	j	4 <on_pass>
  84:	0000006f          	j	84 <pass+0xc>
