
rv64ui-uo-or:     file format elf64-littleriscv


Disassembly of section .text:

0000000000000000 <on_pass-0x4>:
   0:	00c0006f          	j	c <_start>

0000000000000004 <on_pass>:
   4:	0000006f          	j	4 <on_pass>

0000000000000008 <on_fail>:
   8:	0000006f          	j	8 <on_fail>

000000000000000c <_start>:
   c:	000100b7          	lui	ra,0x10
  10:	f010809b          	addiw	ra,ra,-255
  14:	01009093          	slli	ra,ra,0x10
  18:	f0008093          	addi	ra,ra,-256 # ff00 <_end+0xef00>
  1c:	0f0f1137          	lui	sp,0xf0f1
  20:	f0f1011b          	addiw	sp,sp,-241
  24:	0020ef33          	or	t5,ra,sp
  28:	00001eb7          	lui	t4,0x1
  2c:	ff1e8e9b          	addiw	t4,t4,-15
  30:	014e9e93          	slli	t4,t4,0x14
  34:	f0fe8e93          	addi	t4,t4,-241 # f0f <pass+0x91b>
  38:	00200193          	li	gp,2
  3c:	5bdf1663          	bne	t5,t4,5e8 <fail>

0000000000000040 <test_3>:
  40:	0ff010b7          	lui	ra,0xff01
  44:	ff00809b          	addiw	ra,ra,-16
  48:	000f1137          	lui	sp,0xf1
  4c:	f0f1011b          	addiw	sp,sp,-241
  50:	00c11113          	slli	sp,sp,0xc
  54:	0f010113          	addi	sp,sp,240 # f10f0 <_end+0xf00f0>
  58:	0020ef33          	or	t5,ra,sp
  5c:	00010eb7          	lui	t4,0x10
  60:	ff1e8e9b          	addiw	t4,t4,-15
  64:	010e9e93          	slli	t4,t4,0x10
  68:	ff0e8e93          	addi	t4,t4,-16 # fff0 <_end+0xeff0>
  6c:	00300193          	li	gp,3
  70:	57df1c63          	bne	t5,t4,5e8 <fail>

0000000000000074 <test_4>:
  74:	00ff00b7          	lui	ra,0xff0
  78:	0ff0809b          	addiw	ra,ra,255
  7c:	0f0f1137          	lui	sp,0xf0f1
  80:	f0f1011b          	addiw	sp,sp,-241
  84:	0020ef33          	or	t5,ra,sp
  88:	0fff1eb7          	lui	t4,0xfff1
  8c:	fffe8e9b          	addiw	t4,t4,-1
  90:	00400193          	li	gp,4
  94:	55df1a63          	bne	t5,t4,5e8 <fail>

0000000000000098 <test_5>:
  98:	000f00b7          	lui	ra,0xf0
  9c:	0ff0809b          	addiw	ra,ra,255
  a0:	00c09093          	slli	ra,ra,0xc
  a4:	00f08093          	addi	ra,ra,15 # f000f <_end+0xef00f>
  a8:	000f1137          	lui	sp,0xf1
  ac:	f0f1011b          	addiw	sp,sp,-241
  b0:	00c11113          	slli	sp,sp,0xc
  b4:	0f010113          	addi	sp,sp,240 # f10f0 <_end+0xf00f0>
  b8:	0020ef33          	or	t5,ra,sp
  bc:	000f1eb7          	lui	t4,0xf1
  c0:	fffe8e9b          	addiw	t4,t4,-1
  c4:	00ce9e93          	slli	t4,t4,0xc
  c8:	0ffe8e93          	addi	t4,t4,255 # f10ff <_end+0xf00ff>
  cc:	00500193          	li	gp,5
  d0:	51df1c63          	bne	t5,t4,5e8 <fail>

00000000000000d4 <test_6>:
  d4:	000100b7          	lui	ra,0x10
  d8:	f010809b          	addiw	ra,ra,-255
  dc:	01009093          	slli	ra,ra,0x10
  e0:	f0008093          	addi	ra,ra,-256 # ff00 <_end+0xef00>
  e4:	0f0f1137          	lui	sp,0xf0f1
  e8:	f0f1011b          	addiw	sp,sp,-241
  ec:	0020e0b3          	or	ra,ra,sp
  f0:	00001eb7          	lui	t4,0x1
  f4:	ff1e8e9b          	addiw	t4,t4,-15
  f8:	014e9e93          	slli	t4,t4,0x14
  fc:	f0fe8e93          	addi	t4,t4,-241 # f0f <pass+0x91b>
 100:	00600193          	li	gp,6
 104:	4fd09263          	bne	ra,t4,5e8 <fail>

0000000000000108 <test_7>:
 108:	000100b7          	lui	ra,0x10
 10c:	f010809b          	addiw	ra,ra,-255
 110:	01009093          	slli	ra,ra,0x10
 114:	f0008093          	addi	ra,ra,-256 # ff00 <_end+0xef00>
 118:	0f0f1137          	lui	sp,0xf0f1
 11c:	f0f1011b          	addiw	sp,sp,-241
 120:	0020e133          	or	sp,ra,sp
 124:	00001eb7          	lui	t4,0x1
 128:	ff1e8e9b          	addiw	t4,t4,-15
 12c:	014e9e93          	slli	t4,t4,0x14
 130:	f0fe8e93          	addi	t4,t4,-241 # f0f <pass+0x91b>
 134:	00700193          	li	gp,7
 138:	4bd11863          	bne	sp,t4,5e8 <fail>

000000000000013c <test_8>:
 13c:	000100b7          	lui	ra,0x10
 140:	f010809b          	addiw	ra,ra,-255
 144:	01009093          	slli	ra,ra,0x10
 148:	f0008093          	addi	ra,ra,-256 # ff00 <_end+0xef00>
 14c:	0010e0b3          	or	ra,ra,ra
 150:	00010eb7          	lui	t4,0x10
 154:	f01e8e9b          	addiw	t4,t4,-255
 158:	010e9e93          	slli	t4,t4,0x10
 15c:	f00e8e93          	addi	t4,t4,-256 # ff00 <_end+0xef00>
 160:	00800193          	li	gp,8
 164:	49d09263          	bne	ra,t4,5e8 <fail>

0000000000000168 <test_9>:
 168:	00000213          	li	tp,0
 16c:	000100b7          	lui	ra,0x10
 170:	f010809b          	addiw	ra,ra,-255
 174:	01009093          	slli	ra,ra,0x10
 178:	f0008093          	addi	ra,ra,-256 # ff00 <_end+0xef00>
 17c:	0f0f1137          	lui	sp,0xf0f1
 180:	f0f1011b          	addiw	sp,sp,-241
 184:	0020ef33          	or	t5,ra,sp
 188:	000f0313          	mv	t1,t5
 18c:	00120213          	addi	tp,tp,1 # 1 <on_pass-0x3>
 190:	00200293          	li	t0,2
 194:	fc521ce3          	bne	tp,t0,16c <test_9+0x4>
 198:	00001eb7          	lui	t4,0x1
 19c:	ff1e8e9b          	addiw	t4,t4,-15
 1a0:	014e9e93          	slli	t4,t4,0x14
 1a4:	f0fe8e93          	addi	t4,t4,-241 # f0f <pass+0x91b>
 1a8:	00900193          	li	gp,9
 1ac:	43d31e63          	bne	t1,t4,5e8 <fail>

00000000000001b0 <test_10>:
 1b0:	00000213          	li	tp,0
 1b4:	0ff010b7          	lui	ra,0xff01
 1b8:	ff00809b          	addiw	ra,ra,-16
 1bc:	000f1137          	lui	sp,0xf1
 1c0:	f0f1011b          	addiw	sp,sp,-241
 1c4:	00c11113          	slli	sp,sp,0xc
 1c8:	0f010113          	addi	sp,sp,240 # f10f0 <_end+0xf00f0>
 1cc:	0020ef33          	or	t5,ra,sp
 1d0:	00000013          	nop
 1d4:	000f0313          	mv	t1,t5
 1d8:	00120213          	addi	tp,tp,1 # 1 <on_pass-0x3>
 1dc:	00200293          	li	t0,2
 1e0:	fc521ae3          	bne	tp,t0,1b4 <test_10+0x4>
 1e4:	00010eb7          	lui	t4,0x10
 1e8:	ff1e8e9b          	addiw	t4,t4,-15
 1ec:	010e9e93          	slli	t4,t4,0x10
 1f0:	ff0e8e93          	addi	t4,t4,-16 # fff0 <_end+0xeff0>
 1f4:	00a00193          	li	gp,10
 1f8:	3fd31863          	bne	t1,t4,5e8 <fail>

00000000000001fc <test_11>:
 1fc:	00000213          	li	tp,0
 200:	00ff00b7          	lui	ra,0xff0
 204:	0ff0809b          	addiw	ra,ra,255
 208:	0f0f1137          	lui	sp,0xf0f1
 20c:	f0f1011b          	addiw	sp,sp,-241
 210:	0020ef33          	or	t5,ra,sp
 214:	00000013          	nop
 218:	00000013          	nop
 21c:	000f0313          	mv	t1,t5
 220:	00120213          	addi	tp,tp,1 # 1 <on_pass-0x3>
 224:	00200293          	li	t0,2
 228:	fc521ce3          	bne	tp,t0,200 <test_11+0x4>
 22c:	0fff1eb7          	lui	t4,0xfff1
 230:	fffe8e9b          	addiw	t4,t4,-1
 234:	00b00193          	li	gp,11
 238:	3bd31863          	bne	t1,t4,5e8 <fail>

000000000000023c <test_12>:
 23c:	00000213          	li	tp,0
 240:	000100b7          	lui	ra,0x10
 244:	f010809b          	addiw	ra,ra,-255
 248:	01009093          	slli	ra,ra,0x10
 24c:	f0008093          	addi	ra,ra,-256 # ff00 <_end+0xef00>
 250:	0f0f1137          	lui	sp,0xf0f1
 254:	f0f1011b          	addiw	sp,sp,-241
 258:	0020ef33          	or	t5,ra,sp
 25c:	00120213          	addi	tp,tp,1 # 1 <on_pass-0x3>
 260:	00200293          	li	t0,2
 264:	fc521ee3          	bne	tp,t0,240 <test_12+0x4>
 268:	00001eb7          	lui	t4,0x1
 26c:	ff1e8e9b          	addiw	t4,t4,-15
 270:	014e9e93          	slli	t4,t4,0x14
 274:	f0fe8e93          	addi	t4,t4,-241 # f0f <pass+0x91b>
 278:	00c00193          	li	gp,12
 27c:	37df1663          	bne	t5,t4,5e8 <fail>

0000000000000280 <test_13>:
 280:	00000213          	li	tp,0
 284:	0ff010b7          	lui	ra,0xff01
 288:	ff00809b          	addiw	ra,ra,-16
 28c:	000f1137          	lui	sp,0xf1
 290:	f0f1011b          	addiw	sp,sp,-241
 294:	00c11113          	slli	sp,sp,0xc
 298:	0f010113          	addi	sp,sp,240 # f10f0 <_end+0xf00f0>
 29c:	00000013          	nop
 2a0:	0020ef33          	or	t5,ra,sp
 2a4:	00120213          	addi	tp,tp,1 # 1 <on_pass-0x3>
 2a8:	00200293          	li	t0,2
 2ac:	fc521ce3          	bne	tp,t0,284 <test_13+0x4>
 2b0:	00010eb7          	lui	t4,0x10
 2b4:	ff1e8e9b          	addiw	t4,t4,-15
 2b8:	010e9e93          	slli	t4,t4,0x10
 2bc:	ff0e8e93          	addi	t4,t4,-16 # fff0 <_end+0xeff0>
 2c0:	00d00193          	li	gp,13
 2c4:	33df1263          	bne	t5,t4,5e8 <fail>

00000000000002c8 <test_14>:
 2c8:	00000213          	li	tp,0
 2cc:	00ff00b7          	lui	ra,0xff0
 2d0:	0ff0809b          	addiw	ra,ra,255
 2d4:	0f0f1137          	lui	sp,0xf0f1
 2d8:	f0f1011b          	addiw	sp,sp,-241
 2dc:	00000013          	nop
 2e0:	00000013          	nop
 2e4:	0020ef33          	or	t5,ra,sp
 2e8:	00120213          	addi	tp,tp,1 # 1 <on_pass-0x3>
 2ec:	00200293          	li	t0,2
 2f0:	fc521ee3          	bne	tp,t0,2cc <test_14+0x4>
 2f4:	0fff1eb7          	lui	t4,0xfff1
 2f8:	fffe8e9b          	addiw	t4,t4,-1
 2fc:	00e00193          	li	gp,14
 300:	2fdf1463          	bne	t5,t4,5e8 <fail>

0000000000000304 <test_15>:
 304:	00000213          	li	tp,0
 308:	000100b7          	lui	ra,0x10
 30c:	f010809b          	addiw	ra,ra,-255
 310:	01009093          	slli	ra,ra,0x10
 314:	f0008093          	addi	ra,ra,-256 # ff00 <_end+0xef00>
 318:	00000013          	nop
 31c:	0f0f1137          	lui	sp,0xf0f1
 320:	f0f1011b          	addiw	sp,sp,-241
 324:	0020ef33          	or	t5,ra,sp
 328:	00120213          	addi	tp,tp,1 # 1 <on_pass-0x3>
 32c:	00200293          	li	t0,2
 330:	fc521ce3          	bne	tp,t0,308 <test_15+0x4>
 334:	00001eb7          	lui	t4,0x1
 338:	ff1e8e9b          	addiw	t4,t4,-15
 33c:	014e9e93          	slli	t4,t4,0x14
 340:	f0fe8e93          	addi	t4,t4,-241 # f0f <pass+0x91b>
 344:	00f00193          	li	gp,15
 348:	2bdf1063          	bne	t5,t4,5e8 <fail>

000000000000034c <test_16>:
 34c:	00000213          	li	tp,0
 350:	0ff010b7          	lui	ra,0xff01
 354:	ff00809b          	addiw	ra,ra,-16
 358:	00000013          	nop
 35c:	000f1137          	lui	sp,0xf1
 360:	f0f1011b          	addiw	sp,sp,-241
 364:	00c11113          	slli	sp,sp,0xc
 368:	0f010113          	addi	sp,sp,240 # f10f0 <_end+0xf00f0>
 36c:	00000013          	nop
 370:	0020ef33          	or	t5,ra,sp
 374:	00120213          	addi	tp,tp,1 # 1 <on_pass-0x3>
 378:	00200293          	li	t0,2
 37c:	fc521ae3          	bne	tp,t0,350 <test_16+0x4>
 380:	00010eb7          	lui	t4,0x10
 384:	ff1e8e9b          	addiw	t4,t4,-15
 388:	010e9e93          	slli	t4,t4,0x10
 38c:	ff0e8e93          	addi	t4,t4,-16 # fff0 <_end+0xeff0>
 390:	01000193          	li	gp,16
 394:	25df1a63          	bne	t5,t4,5e8 <fail>

0000000000000398 <test_17>:
 398:	00000213          	li	tp,0
 39c:	00ff00b7          	lui	ra,0xff0
 3a0:	0ff0809b          	addiw	ra,ra,255
 3a4:	00000013          	nop
 3a8:	00000013          	nop
 3ac:	0f0f1137          	lui	sp,0xf0f1
 3b0:	f0f1011b          	addiw	sp,sp,-241
 3b4:	0020ef33          	or	t5,ra,sp
 3b8:	00120213          	addi	tp,tp,1 # 1 <on_pass-0x3>
 3bc:	00200293          	li	t0,2
 3c0:	fc521ee3          	bne	tp,t0,39c <test_17+0x4>
 3c4:	0fff1eb7          	lui	t4,0xfff1
 3c8:	fffe8e9b          	addiw	t4,t4,-1
 3cc:	01100193          	li	gp,17
 3d0:	21df1c63          	bne	t5,t4,5e8 <fail>

00000000000003d4 <test_18>:
 3d4:	00000213          	li	tp,0
 3d8:	0f0f1137          	lui	sp,0xf0f1
 3dc:	f0f1011b          	addiw	sp,sp,-241
 3e0:	000100b7          	lui	ra,0x10
 3e4:	f010809b          	addiw	ra,ra,-255
 3e8:	01009093          	slli	ra,ra,0x10
 3ec:	f0008093          	addi	ra,ra,-256 # ff00 <_end+0xef00>
 3f0:	0020ef33          	or	t5,ra,sp
 3f4:	00120213          	addi	tp,tp,1 # 1 <on_pass-0x3>
 3f8:	00200293          	li	t0,2
 3fc:	fc521ee3          	bne	tp,t0,3d8 <test_18+0x4>
 400:	00001eb7          	lui	t4,0x1
 404:	ff1e8e9b          	addiw	t4,t4,-15
 408:	014e9e93          	slli	t4,t4,0x14
 40c:	f0fe8e93          	addi	t4,t4,-241 # f0f <pass+0x91b>
 410:	01200193          	li	gp,18
 414:	1ddf1a63          	bne	t5,t4,5e8 <fail>

0000000000000418 <test_19>:
 418:	00000213          	li	tp,0
 41c:	000f1137          	lui	sp,0xf1
 420:	f0f1011b          	addiw	sp,sp,-241
 424:	00c11113          	slli	sp,sp,0xc
 428:	0f010113          	addi	sp,sp,240 # f10f0 <_end+0xf00f0>
 42c:	0ff010b7          	lui	ra,0xff01
 430:	ff00809b          	addiw	ra,ra,-16
 434:	00000013          	nop
 438:	0020ef33          	or	t5,ra,sp
 43c:	00120213          	addi	tp,tp,1 # 1 <on_pass-0x3>
 440:	00200293          	li	t0,2
 444:	fc521ce3          	bne	tp,t0,41c <test_19+0x4>
 448:	00010eb7          	lui	t4,0x10
 44c:	ff1e8e9b          	addiw	t4,t4,-15
 450:	010e9e93          	slli	t4,t4,0x10
 454:	ff0e8e93          	addi	t4,t4,-16 # fff0 <_end+0xeff0>
 458:	01300193          	li	gp,19
 45c:	19df1663          	bne	t5,t4,5e8 <fail>

0000000000000460 <test_20>:
 460:	00000213          	li	tp,0
 464:	0f0f1137          	lui	sp,0xf0f1
 468:	f0f1011b          	addiw	sp,sp,-241
 46c:	00ff00b7          	lui	ra,0xff0
 470:	0ff0809b          	addiw	ra,ra,255
 474:	00000013          	nop
 478:	00000013          	nop
 47c:	0020ef33          	or	t5,ra,sp
 480:	00120213          	addi	tp,tp,1 # 1 <on_pass-0x3>
 484:	00200293          	li	t0,2
 488:	fc521ee3          	bne	tp,t0,464 <test_20+0x4>
 48c:	0fff1eb7          	lui	t4,0xfff1
 490:	fffe8e9b          	addiw	t4,t4,-1
 494:	01400193          	li	gp,20
 498:	15df1863          	bne	t5,t4,5e8 <fail>

000000000000049c <test_21>:
 49c:	00000213          	li	tp,0
 4a0:	0f0f1137          	lui	sp,0xf0f1
 4a4:	f0f1011b          	addiw	sp,sp,-241
 4a8:	00000013          	nop
 4ac:	000100b7          	lui	ra,0x10
 4b0:	f010809b          	addiw	ra,ra,-255
 4b4:	01009093          	slli	ra,ra,0x10
 4b8:	f0008093          	addi	ra,ra,-256 # ff00 <_end+0xef00>
 4bc:	0020ef33          	or	t5,ra,sp
 4c0:	00120213          	addi	tp,tp,1 # 1 <on_pass-0x3>
 4c4:	00200293          	li	t0,2
 4c8:	fc521ce3          	bne	tp,t0,4a0 <test_21+0x4>
 4cc:	00001eb7          	lui	t4,0x1
 4d0:	ff1e8e9b          	addiw	t4,t4,-15
 4d4:	014e9e93          	slli	t4,t4,0x14
 4d8:	f0fe8e93          	addi	t4,t4,-241 # f0f <pass+0x91b>
 4dc:	01500193          	li	gp,21
 4e0:	11df1463          	bne	t5,t4,5e8 <fail>

00000000000004e4 <test_22>:
 4e4:	00000213          	li	tp,0
 4e8:	000f1137          	lui	sp,0xf1
 4ec:	f0f1011b          	addiw	sp,sp,-241
 4f0:	00c11113          	slli	sp,sp,0xc
 4f4:	0f010113          	addi	sp,sp,240 # f10f0 <_end+0xf00f0>
 4f8:	00000013          	nop
 4fc:	0ff010b7          	lui	ra,0xff01
 500:	ff00809b          	addiw	ra,ra,-16
 504:	00000013          	nop
 508:	0020ef33          	or	t5,ra,sp
 50c:	00120213          	addi	tp,tp,1 # 1 <on_pass-0x3>
 510:	00200293          	li	t0,2
 514:	fc521ae3          	bne	tp,t0,4e8 <test_22+0x4>
 518:	00010eb7          	lui	t4,0x10
 51c:	ff1e8e9b          	addiw	t4,t4,-15
 520:	010e9e93          	slli	t4,t4,0x10
 524:	ff0e8e93          	addi	t4,t4,-16 # fff0 <_end+0xeff0>
 528:	01600193          	li	gp,22
 52c:	0bdf1e63          	bne	t5,t4,5e8 <fail>

0000000000000530 <test_23>:
 530:	00000213          	li	tp,0
 534:	0f0f1137          	lui	sp,0xf0f1
 538:	f0f1011b          	addiw	sp,sp,-241
 53c:	00000013          	nop
 540:	00000013          	nop
 544:	00ff00b7          	lui	ra,0xff0
 548:	0ff0809b          	addiw	ra,ra,255
 54c:	0020ef33          	or	t5,ra,sp
 550:	00120213          	addi	tp,tp,1 # 1 <on_pass-0x3>
 554:	00200293          	li	t0,2
 558:	fc521ee3          	bne	tp,t0,534 <test_23+0x4>
 55c:	0fff1eb7          	lui	t4,0xfff1
 560:	fffe8e9b          	addiw	t4,t4,-1
 564:	01700193          	li	gp,23
 568:	09df1063          	bne	t5,t4,5e8 <fail>

000000000000056c <test_24>:
 56c:	000100b7          	lui	ra,0x10
 570:	f010809b          	addiw	ra,ra,-255
 574:	01009093          	slli	ra,ra,0x10
 578:	f0008093          	addi	ra,ra,-256 # ff00 <_end+0xef00>
 57c:	00106133          	or	sp,zero,ra
 580:	00010eb7          	lui	t4,0x10
 584:	f01e8e9b          	addiw	t4,t4,-255
 588:	010e9e93          	slli	t4,t4,0x10
 58c:	f00e8e93          	addi	t4,t4,-256 # ff00 <_end+0xef00>
 590:	01800193          	li	gp,24
 594:	05d11a63          	bne	sp,t4,5e8 <fail>

0000000000000598 <test_25>:
 598:	00ff00b7          	lui	ra,0xff0
 59c:	0ff0809b          	addiw	ra,ra,255
 5a0:	0000e133          	or	sp,ra,zero
 5a4:	00ff0eb7          	lui	t4,0xff0
 5a8:	0ffe8e9b          	addiw	t4,t4,255
 5ac:	01900193          	li	gp,25
 5b0:	03d11c63          	bne	sp,t4,5e8 <fail>

00000000000005b4 <test_26>:
 5b4:	000060b3          	or	ra,zero,zero
 5b8:	00000e93          	li	t4,0
 5bc:	01a00193          	li	gp,26
 5c0:	03d09463          	bne	ra,t4,5e8 <fail>

00000000000005c4 <test_27>:
 5c4:	111110b7          	lui	ra,0x11111
 5c8:	1110809b          	addiw	ra,ra,273
 5cc:	22222137          	lui	sp,0x22222
 5d0:	2221011b          	addiw	sp,sp,546
 5d4:	0020e033          	or	zero,ra,sp
 5d8:	00000e93          	li	t4,0
 5dc:	01b00193          	li	gp,27
 5e0:	01d01463          	bne	zero,t4,5e8 <fail>
 5e4:	00301863          	bne	zero,gp,5f4 <pass>

00000000000005e8 <fail>:
 5e8:	00000093          	li	ra,0
 5ec:	00100073          	ebreak
 5f0:	a19ff06f          	j	8 <on_fail>

00000000000005f4 <pass>:
 5f4:	00100093          	li	ra,1
 5f8:	00000073          	ecall
 5fc:	a09ff06f          	j	4 <on_pass>
 600:	0000006f          	j	600 <pass+0xc>
