
rv64um-uo-remw:     file format elf64-littleriscv


Disassembly of section .text:

0000000000000000 <on_pass-0x4>:
   0:	00c0006f          	j	c <_start>

0000000000000004 <on_pass>:
   4:	0000006f          	j	4 <on_pass>

0000000000000008 <on_fail>:
   8:	0000006f          	j	8 <on_fail>

000000000000000c <_start>:
   c:	01400093          	li	ra,20
  10:	00600113          	li	sp,6
  14:	0220ef3b          	remw	t5,ra,sp
  18:	00200e93          	li	t4,2
  1c:	00200193          	li	gp,2
  20:	0fdf1063          	bne	t5,t4,100 <fail>

0000000000000024 <test_3>:
  24:	fec00093          	li	ra,-20
  28:	00600113          	li	sp,6
  2c:	0220ef3b          	remw	t5,ra,sp
  30:	ffe00e93          	li	t4,-2
  34:	00300193          	li	gp,3
  38:	0ddf1463          	bne	t5,t4,100 <fail>

000000000000003c <test_4>:
  3c:	01400093          	li	ra,20
  40:	ffa00113          	li	sp,-6
  44:	0220ef3b          	remw	t5,ra,sp
  48:	00200e93          	li	t4,2
  4c:	00400193          	li	gp,4
  50:	0bdf1863          	bne	t5,t4,100 <fail>

0000000000000054 <test_5>:
  54:	fec00093          	li	ra,-20
  58:	ffa00113          	li	sp,-6
  5c:	0220ef3b          	remw	t5,ra,sp
  60:	ffe00e93          	li	t4,-2
  64:	00500193          	li	gp,5
  68:	09df1c63          	bne	t5,t4,100 <fail>

000000000000006c <test_6>:
  6c:	800000b7          	lui	ra,0x80000
  70:	00100113          	li	sp,1
  74:	0220ef3b          	remw	t5,ra,sp
  78:	00000e93          	li	t4,0
  7c:	00600193          	li	gp,6
  80:	09df1063          	bne	t5,t4,100 <fail>

0000000000000084 <test_7>:
  84:	800000b7          	lui	ra,0x80000
  88:	fff00113          	li	sp,-1
  8c:	0220ef3b          	remw	t5,ra,sp
  90:	00000e93          	li	t4,0
  94:	00700193          	li	gp,7
  98:	07df1463          	bne	t5,t4,100 <fail>

000000000000009c <test_8>:
  9c:	800000b7          	lui	ra,0x80000
  a0:	00000113          	li	sp,0
  a4:	0220ef3b          	remw	t5,ra,sp
  a8:	80000eb7          	lui	t4,0x80000
  ac:	00800193          	li	gp,8
  b0:	05df1863          	bne	t5,t4,100 <fail>

00000000000000b4 <test_9>:
  b4:	00100093          	li	ra,1
  b8:	00000113          	li	sp,0
  bc:	0220ef3b          	remw	t5,ra,sp
  c0:	00100e93          	li	t4,1
  c4:	00900193          	li	gp,9
  c8:	03df1c63          	bne	t5,t4,100 <fail>

00000000000000cc <test_10>:
  cc:	00000093          	li	ra,0
  d0:	00000113          	li	sp,0
  d4:	0220ef3b          	remw	t5,ra,sp
  d8:	00000e93          	li	t4,0
  dc:	00a00193          	li	gp,10
  e0:	03df1063          	bne	t5,t4,100 <fail>

00000000000000e4 <test_11>:
  e4:	89700093          	li	ra,-1897
  e8:	00000113          	li	sp,0
  ec:	0220ef3b          	remw	t5,ra,sp
  f0:	89700e93          	li	t4,-1897
  f4:	00b00193          	li	gp,11
  f8:	01df1463          	bne	t5,t4,100 <fail>
  fc:	00301863          	bne	zero,gp,10c <pass>

0000000000000100 <fail>:
 100:	00000093          	li	ra,0
 104:	00100073          	ebreak
 108:	f01ff06f          	j	8 <on_fail>

000000000000010c <pass>:
 10c:	00100093          	li	ra,1
 110:	00000073          	ecall
 114:	ef1ff06f          	j	4 <on_pass>
 118:	0000006f          	j	118 <pass+0xc>
