
rv64ui-uo-slliw:     file format elf64-littleriscv


Disassembly of section .text:

0000000000000000 <on_pass-0x4>:
   0:	00c0006f          	j	c <_start>

0000000000000004 <on_pass>:
   4:	0000006f          	j	4 <on_pass>

0000000000000008 <on_fail>:
   8:	0000006f          	j	8 <on_fail>

000000000000000c <_start>:
   c:	00100093          	li	ra,1
  10:	00009f1b          	slliw	t5,ra,0x0
  14:	00100e93          	li	t4,1
  18:	00200193          	li	gp,2
  1c:	27df1a63          	bne	t5,t4,290 <fail>

0000000000000020 <test_3>:
  20:	00100093          	li	ra,1
  24:	00109f1b          	slliw	t5,ra,0x1
  28:	00200e93          	li	t4,2
  2c:	00300193          	li	gp,3
  30:	27df1063          	bne	t5,t4,290 <fail>

0000000000000034 <test_4>:
  34:	00100093          	li	ra,1
  38:	00709f1b          	slliw	t5,ra,0x7
  3c:	08000e93          	li	t4,128
  40:	00400193          	li	gp,4
  44:	25df1663          	bne	t5,t4,290 <fail>

0000000000000048 <test_5>:
  48:	00100093          	li	ra,1
  4c:	00e09f1b          	slliw	t5,ra,0xe
  50:	00004eb7          	lui	t4,0x4
  54:	00500193          	li	gp,5
  58:	23df1c63          	bne	t5,t4,290 <fail>

000000000000005c <test_6>:
  5c:	00100093          	li	ra,1
  60:	01f09f1b          	slliw	t5,ra,0x1f
  64:	80000eb7          	lui	t4,0x80000
  68:	00600193          	li	gp,6
  6c:	23df1263          	bne	t5,t4,290 <fail>

0000000000000070 <test_7>:
  70:	fff00093          	li	ra,-1
  74:	00009f1b          	slliw	t5,ra,0x0
  78:	fff00e93          	li	t4,-1
  7c:	00700193          	li	gp,7
  80:	21df1863          	bne	t5,t4,290 <fail>

0000000000000084 <test_8>:
  84:	fff00093          	li	ra,-1
  88:	00109f1b          	slliw	t5,ra,0x1
  8c:	ffe00e93          	li	t4,-2
  90:	00800193          	li	gp,8
  94:	1fdf1e63          	bne	t5,t4,290 <fail>

0000000000000098 <test_9>:
  98:	fff00093          	li	ra,-1
  9c:	00709f1b          	slliw	t5,ra,0x7
  a0:	f8000e93          	li	t4,-128
  a4:	00900193          	li	gp,9
  a8:	1fdf1463          	bne	t5,t4,290 <fail>

00000000000000ac <test_10>:
  ac:	fff00093          	li	ra,-1
  b0:	00e09f1b          	slliw	t5,ra,0xe
  b4:	ffffceb7          	lui	t4,0xffffc
  b8:	00a00193          	li	gp,10
  bc:	1ddf1a63          	bne	t5,t4,290 <fail>

00000000000000c0 <test_11>:
  c0:	fff00093          	li	ra,-1
  c4:	01f09f1b          	slliw	t5,ra,0x1f
  c8:	80000eb7          	lui	t4,0x80000
  cc:	00b00193          	li	gp,11
  d0:	1ddf1063          	bne	t5,t4,290 <fail>

00000000000000d4 <test_12>:
  d4:	212120b7          	lui	ra,0x21212
  d8:	1210809b          	addiw	ra,ra,289
  dc:	00009f1b          	slliw	t5,ra,0x0
  e0:	21212eb7          	lui	t4,0x21212
  e4:	121e8e9b          	addiw	t4,t4,289
  e8:	00c00193          	li	gp,12
  ec:	1bdf1263          	bne	t5,t4,290 <fail>

00000000000000f0 <test_13>:
  f0:	212120b7          	lui	ra,0x21212
  f4:	1210809b          	addiw	ra,ra,289
  f8:	00109f1b          	slliw	t5,ra,0x1
  fc:	42424eb7          	lui	t4,0x42424
 100:	242e8e9b          	addiw	t4,t4,578
 104:	00d00193          	li	gp,13
 108:	19df1463          	bne	t5,t4,290 <fail>

000000000000010c <test_14>:
 10c:	212120b7          	lui	ra,0x21212
 110:	1210809b          	addiw	ra,ra,289
 114:	00709f1b          	slliw	t5,ra,0x7
 118:	90909eb7          	lui	t4,0x90909
 11c:	080e8e9b          	addiw	t4,t4,128
 120:	00e00193          	li	gp,14
 124:	17df1663          	bne	t5,t4,290 <fail>

0000000000000128 <test_15>:
 128:	212120b7          	lui	ra,0x21212
 12c:	1210809b          	addiw	ra,ra,289
 130:	00e09f1b          	slliw	t5,ra,0xe
 134:	48484eb7          	lui	t4,0x48484
 138:	00f00193          	li	gp,15
 13c:	15df1a63          	bne	t5,t4,290 <fail>

0000000000000140 <test_16>:
 140:	212120b7          	lui	ra,0x21212
 144:	1210809b          	addiw	ra,ra,289
 148:	01f09f1b          	slliw	t5,ra,0x1f
 14c:	80000eb7          	lui	t4,0x80000
 150:	01000193          	li	gp,16
 154:	13df1e63          	bne	t5,t4,290 <fail>

0000000000000158 <test_17>:
 158:	00100093          	li	ra,1
 15c:	0070909b          	slliw	ra,ra,0x7
 160:	08000e93          	li	t4,128
 164:	01100193          	li	gp,17
 168:	13d09463          	bne	ra,t4,290 <fail>

000000000000016c <test_18>:
 16c:	00000213          	li	tp,0
 170:	00100093          	li	ra,1
 174:	00709f1b          	slliw	t5,ra,0x7
 178:	000f0313          	mv	t1,t5
 17c:	00120213          	addi	tp,tp,1 # 1 <on_pass-0x3>
 180:	00200293          	li	t0,2
 184:	fe5216e3          	bne	tp,t0,170 <test_18+0x4>
 188:	08000e93          	li	t4,128
 18c:	01200193          	li	gp,18
 190:	11d31063          	bne	t1,t4,290 <fail>

0000000000000194 <test_19>:
 194:	00000213          	li	tp,0
 198:	00100093          	li	ra,1
 19c:	00e09f1b          	slliw	t5,ra,0xe
 1a0:	00000013          	nop
 1a4:	000f0313          	mv	t1,t5
 1a8:	00120213          	addi	tp,tp,1 # 1 <on_pass-0x3>
 1ac:	00200293          	li	t0,2
 1b0:	fe5214e3          	bne	tp,t0,198 <test_19+0x4>
 1b4:	00004eb7          	lui	t4,0x4
 1b8:	01300193          	li	gp,19
 1bc:	0dd31a63          	bne	t1,t4,290 <fail>

00000000000001c0 <test_20>:
 1c0:	00000213          	li	tp,0
 1c4:	00100093          	li	ra,1
 1c8:	01f09f1b          	slliw	t5,ra,0x1f
 1cc:	00000013          	nop
 1d0:	00000013          	nop
 1d4:	000f0313          	mv	t1,t5
 1d8:	00120213          	addi	tp,tp,1 # 1 <on_pass-0x3>
 1dc:	00200293          	li	t0,2
 1e0:	fe5212e3          	bne	tp,t0,1c4 <test_20+0x4>
 1e4:	80000eb7          	lui	t4,0x80000
 1e8:	01400193          	li	gp,20
 1ec:	0bd31263          	bne	t1,t4,290 <fail>

00000000000001f0 <test_21>:
 1f0:	00000213          	li	tp,0
 1f4:	00100093          	li	ra,1
 1f8:	00709f1b          	slliw	t5,ra,0x7
 1fc:	00120213          	addi	tp,tp,1 # 1 <on_pass-0x3>
 200:	00200293          	li	t0,2
 204:	fe5218e3          	bne	tp,t0,1f4 <test_21+0x4>
 208:	08000e93          	li	t4,128
 20c:	01500193          	li	gp,21
 210:	09df1063          	bne	t5,t4,290 <fail>

0000000000000214 <test_22>:
 214:	00000213          	li	tp,0
 218:	00100093          	li	ra,1
 21c:	00000013          	nop
 220:	00e09f1b          	slliw	t5,ra,0xe
 224:	00120213          	addi	tp,tp,1 # 1 <on_pass-0x3>
 228:	00200293          	li	t0,2
 22c:	fe5216e3          	bne	tp,t0,218 <test_22+0x4>
 230:	00004eb7          	lui	t4,0x4
 234:	01600193          	li	gp,22
 238:	05df1c63          	bne	t5,t4,290 <fail>

000000000000023c <test_23>:
 23c:	00000213          	li	tp,0
 240:	00100093          	li	ra,1
 244:	00000013          	nop
 248:	00000013          	nop
 24c:	01f09f1b          	slliw	t5,ra,0x1f
 250:	00120213          	addi	tp,tp,1 # 1 <on_pass-0x3>
 254:	00200293          	li	t0,2
 258:	fe5214e3          	bne	tp,t0,240 <test_23+0x4>
 25c:	80000eb7          	lui	t4,0x80000
 260:	01700193          	li	gp,23
 264:	03df1663          	bne	t5,t4,290 <fail>

0000000000000268 <test_24>:
 268:	01f0109b          	slliw	ra,zero,0x1f
 26c:	00000e93          	li	t4,0
 270:	01800193          	li	gp,24
 274:	01d09e63          	bne	ra,t4,290 <fail>

0000000000000278 <test_25>:
 278:	01f00093          	li	ra,31
 27c:	01c0901b          	slliw	zero,ra,0x1c
 280:	00000e93          	li	t4,0
 284:	01900193          	li	gp,25
 288:	01d01463          	bne	zero,t4,290 <fail>
 28c:	00301863          	bne	zero,gp,29c <pass>

0000000000000290 <fail>:
 290:	00000093          	li	ra,0
 294:	00100073          	ebreak
 298:	d71ff06f          	j	8 <on_fail>

000000000000029c <pass>:
 29c:	00100093          	li	ra,1
 2a0:	00000073          	ecall
 2a4:	d61ff06f          	j	4 <on_pass>
 2a8:	0000006f          	j	2a8 <pass+0xc>
